target datalayout = "e-m:e-p270:32:32-p271:32:32-p272:64:64-i64:64-i128:128-f80:128-n8:16:32:64-S128"
target triple = "x86_64-pc-linux-gnu"

%class.outputStream = type { ptr, i32, i8, i32, i64, %class.TimeStamp, ptr, i64 }
%class.TimeStamp = type { i64 }
%class.fileStream = type <{ %class.outputStream, ptr, i8, [7 x i8] }>

; Function Attrs: mustprogress nounwind uwtable
define hidden noundef i64 @_ZN10fileStream8fileSizeEv(ptr noundef nonnull align 8 dereferenceable(65) %0) #1 align 2 {
  %2 = alloca i64, align 8
  %3 = alloca ptr, align 8
  %4 = alloca i64, align 8
  %5 = alloca i64, align 8
  store ptr %0, ptr %3, align 8
  %6 = load ptr, ptr %3, align 8
  store i64 -1, ptr %4, align 8
  %7 = getelementptr inbounds %class.fileStream, ptr %6, i32 0, i32 1
  %8 = load ptr, ptr %7, align 8
  %9 = icmp ne ptr %8, null
  br i1 %9, label %10, label %32

10:                                               ; preds = %1
  %11 = getelementptr inbounds %class.fileStream, ptr %6, i32 0, i32 1
  %12 = load ptr, ptr %11, align 8
  %13 = call i64 @ftell(ptr noundef %12)
  store i64 %13, ptr %5, align 8
  %14 = load i64, ptr %5, align 8
  %15 = icmp slt i64 %14, 0
  br i1 %15, label %16, label %18

16:                                               ; preds = %10
  %17 = load i64, ptr %5, align 8
  store i64 %17, ptr %2, align 8
  br label %34

18:                                               ; preds = %10
  %19 = getelementptr inbounds %class.fileStream, ptr %6, i32 0, i32 1
  %20 = load ptr, ptr %19, align 8
  %21 = call i32 @fseek(ptr noundef %20, i64 noundef 0, i32 noundef 2)
  %22 = icmp eq i32 %21, 0
  br i1 %22, label %23, label %27

23:                                               ; preds = %18
  %24 = getelementptr inbounds %class.fileStream, ptr %6, i32 0, i32 1
  %25 = load ptr, ptr %24, align 8
  %26 = call i64 @ftell(ptr noundef %25)
  store i64 %26, ptr %4, align 8
  br label %27

27:                                               ; preds = %23, %18
  %28 = getelementptr inbounds %class.fileStream, ptr %6, i32 0, i32 1
  %29 = load ptr, ptr %28, align 8
  %30 = load i64, ptr %5, align 8
  %31 = call i32 @fseek(ptr noundef %29, i64 noundef %30, i32 noundef 0)
  br label %32

32:                                               ; preds = %27, %1
  %33 = load i64, ptr %4, align 8
  store i64 %33, ptr %2, align 8
  br label %34

34:                                               ; preds = %32, %16
  %35 = load i64, ptr %2, align 8
  ret i64 %35
}