; Function Attrs: mustprogress nofree nounwind uwtable
define hidden noundef i64 @_ZN10fileStream8fileSizeEv(ptr nocapture noundef nonnull readonly align 8 dereferenceable(65) %0) local_unnamed_addr #10 align 2 {
  %2 = getelementptr inbounds i8, ptr %0, i64 56
  %3 = load ptr, ptr %2, align 8
  %.not = icmp eq ptr %3, null
  br i1 %.not, label %17, label %4

4:                                                ; preds = %1
  %5 = tail call i64 @ftell(ptr noundef nonnull %3)
  %6 = icmp slt i64 %5, 0
  br i1 %6, label %17, label %7

7:                                                ; preds = %4
  %8 = load ptr, ptr %2, align 8
  %9 = tail call i32 @fseek(ptr noundef %8, i64 noundef 0, i32 noundef 2)
  %10 = icmp eq i32 %9, 0
  br i1 %10, label %11, label %14

11:                                               ; preds = %7
  %12 = load ptr, ptr %2, align 8
  %13 = tail call i64 @ftell(ptr noundef %12)
  br label %14

14:                                               ; preds = %11, %7
  %.05 = phi i64 [ %13, %11 ], [ -1, %7 ]
  %15 = load ptr, ptr %2, align 8
  %16 = tail call i32 @fseek(ptr noundef %15, i64 noundef %5, i32 noundef 0)
  br label %17

17:                                               ; preds = %1, %14, %4
  %.0 = phi i64 [ %5, %4 ], [ %.05, %14 ], [ -1, %1 ]
  ret i64 %.0
}